target datalayout = "e-m:e-p270:32:32-p271:32:32-p272:64:64-i64:64-i128:128-f80:128-n8:16:32:64-S128"
target triple = "x86_64-pc-linux-gnu"

%struct.chr_data = type { i64, i8 }

; Function Attrs: nounwind uwtable
define internal i32 @CORD_chr_proc(i8 noundef signext %0, ptr noundef %1) #0 {
  %3 = alloca i32, align 4
  %4 = alloca i8, align 1
  %5 = alloca ptr, align 8
  %6 = alloca ptr, align 8
  %7 = alloca i32, align 4
  store i8 %0, ptr %4, align 1, !tbaa !8
  store ptr %1, ptr %5, align 8, !tbaa !28
  call void @llvm.lifetime.start.p0(i64 8, ptr %6) #9
  %8 = load ptr, ptr %5, align 8, !tbaa !28
  store ptr %8, ptr %6, align 8, !tbaa !28
  %9 = load i8, ptr %4, align 1, !tbaa !8
  %10 = sext i8 %9 to i32
  %11 = load ptr, ptr %6, align 8, !tbaa !28
  %12 = getelementptr inbounds nuw %struct.chr_data, ptr %11, i32 0, i32 1
  %13 = load i8, ptr %12, align 8, !tbaa !31
  %14 = sext i8 %13 to i32
  %15 = icmp eq i32 %10, %14
  br i1 %15, label %16, label %17

16:                                               ; preds = %2
  store i32 1, ptr %3, align 4
  store i32 1, ptr %7, align 4
  br label %22

17:                                               ; preds = %2
  %18 = load ptr, ptr %6, align 8, !tbaa !28
  %19 = getelementptr inbounds nuw %struct.chr_data, ptr %18, i32 0, i32 0
  %20 = load i64, ptr %19, align 8, !tbaa !29
  %21 = add i64 %20, 1
  store i64 %21, ptr %19, align 8, !tbaa !29
  store i32 0, ptr %3, align 4
  store i32 1, ptr %7, align 4
  br label %22

22:                                               ; preds = %17, %16
  call void @llvm.lifetime.end.p0(i64 8, ptr %6) #9
  %23 = load i32, ptr %3, align 4
  ret i32 %23
}