; Function Attrs: mustprogress nofree norecurse nosync nounwind willreturn memory(argmem: readwrite) uwtable
define internal range(i32 0, 2) i32 @CORD_chr_proc(i8 noundef signext %0, ptr noundef captures(none) %1) #10 {
  %3 = getelementptr inbounds nuw i8, ptr %1, i64 8
  %4 = load i8, ptr %3, align 8, !tbaa !28
  %5 = icmp eq i8 %0, %4
  br i1 %5, label %9, label %6

6:                                                ; preds = %2
  %7 = load i64, ptr %1, align 8, !tbaa !26
  %8 = add i64 %7, 1
  store i64 %8, ptr %1, align 8, !tbaa !26
  br label %9

9:                                                ; preds = %2, %6
  %.0 = phi i32 [ 0, %6 ], [ 1, %2 ]
  ret i32 %.0
}